target datalayout = "e-m:e-p270:32:32-p271:32:32-p272:64:64-i64:64-i128:128-f80:128-n8:16:32:64-S128"
target triple = "x86_64-pc-linux-gnu"

; Function Attrs: nounwind uwtable
define internal i32 @evthread_posix_cond_signal(ptr noundef %0, i32 noundef %1) #0 {
  %3 = alloca ptr, align 8
  %4 = alloca i32, align 4
  %5 = alloca ptr, align 8
  %6 = alloca i32, align 4
  store ptr %0, ptr %3, align 8
  store i32 %1, ptr %4, align 4
  call void @llvm.lifetime.start.p0(i64 8, ptr %5) #6
  %7 = load ptr, ptr %3, align 8
  store ptr %7, ptr %5, align 8
  call void @llvm.lifetime.start.p0(i64 4, ptr %6) #6
  %8 = load i32, ptr %4, align 4
  %9 = icmp ne i32 %8, 0
  br i1 %9, label %10, label %13

10:                                               ; preds = %2
  %11 = load ptr, ptr %5, align 8
  %12 = call i32 @pthread_cond_broadcast(ptr noundef %11) #6
  store i32 %12, ptr %6, align 4
  br label %16

13:                                               ; preds = %2
  %14 = load ptr, ptr %5, align 8
  %15 = call i32 @pthread_cond_signal(ptr noundef %14) #6
  store i32 %15, ptr %6, align 4
  br label %16

16:                                               ; preds = %13, %10
  %17 = load i32, ptr %6, align 4
  %18 = icmp ne i32 %17, 0
  %19 = select i1 %18, i32 -1, i32 0
  call void @llvm.lifetime.end.p0(i64 4, ptr %6) #6
  call void @llvm.lifetime.end.p0(i64 8, ptr %5) #6
  ret i32 %19
}