; Function Attrs: nounwind uwtable
define internal range(i32 -1, 1) i32 @evthread_posix_cond_signal(ptr noundef %0, i32 noundef %1) #0 {
  %.not = icmp eq i32 %1, 0
  br i1 %.not, label %5, label %3

3:                                                ; preds = %2
  %4 = tail call i32 @pthread_cond_broadcast(ptr noundef %0) #8
  br label %7

5:                                                ; preds = %2
  %6 = tail call i32 @pthread_cond_signal(ptr noundef %0) #8
  br label %7

7:                                                ; preds = %5, %3
  %.0 = phi i32 [ %4, %3 ], [ %6, %5 ]
  %.not4 = icmp ne i32 %.0, 0
  %8 = sext i1 %.not4 to i32
  ret i32 %8
}